target datalayout = "e-m:e-p270:32:32-p271:32:32-p272:64:64-i64:64-i128:128-f80:128-n8:16:32:64-S128"
target triple = "x86_64-pc-linux-gnu"

%struct.CodedBitstreamContext = type { ptr, ptr, ptr, ptr, i32, i32, i32, ptr, ptr, ptr, ptr, i64 }
%struct.APVRawFrameHeader = type { %struct.APVRawFrameInfo, i8, i8, i8, i8, i8, i8, i8, %struct.APVRawQuantizationMatrix, %struct.APVRawTileInfo, i8 }
%struct.APVRawFrameInfo = type { i8, i8, i8, i8, i32, i32, i8, i8, i8, i8 }
%struct.APVRawQuantizationMatrix = type { [4 x [8 x [8 x i8]]] }
%struct.APVRawTileInfo = type { i32, i32, i8, [400 x i32] }
%struct.CodedBitstreamAPVContext = type { i32, i32, %struct.APVDerivedTileInfo }
%struct.APVDerivedTileInfo = type { i8, i8, i16, [21 x i16], [21 x i16] }

@.str.32 = private unnamed_addr constant [18 x i8] c"tile_width_in_mbs\00", align 1
@.str.33 = private unnamed_addr constant [19 x i8] c"tile_height_in_mbs\00", align 1
@.str.34 = private unnamed_addr constant [29 x i8] c"tile_size_present_in_fh_flag\00", align 1
@.str.35 = private unnamed_addr constant [19 x i8] c"tile_size_in_fh[t]\00", align 1

; Function Attrs: nounwind uwtable
define internal i32 @cbs_apv_write_tile_info(ptr noundef %0, ptr noundef %1, ptr noundef %2, ptr noundef %3) #0 {
  %5 = alloca i32, align 4
  %6 = alloca ptr, align 8
  %7 = alloca ptr, align 8
  %8 = alloca ptr, align 8
  %9 = alloca ptr, align 8
  %10 = alloca ptr, align 8
  %11 = alloca i32, align 4
  %12 = alloca i32, align 4
  %13 = alloca i32, align 4
  %14 = alloca i32, align 4
  %15 = alloca i32, align 4
  %16 = alloca i32, align 4
  %17 = alloca i32, align 4
  %18 = alloca i32, align 4
  %19 = alloca i32, align 4
  %20 = alloca i32, align 4
  %21 = alloca i32, align 4
  %22 = alloca [2 x i32], align 4
  store ptr %0, ptr %6, align 8, !tbaa !4
  store ptr %1, ptr %7, align 8, !tbaa !50
  store ptr %2, ptr %8, align 8, !tbaa !141
  store ptr %3, ptr %9, align 8, !tbaa !104
  call void @llvm.lifetime.start.p0(i64 8, ptr %10) #8
  %23 = load ptr, ptr %6, align 8, !tbaa !4
  %24 = getelementptr inbounds nuw %struct.CodedBitstreamContext, ptr %23, i32 0, i32 2
  %25 = load ptr, ptr %24, align 8, !tbaa !82
  store ptr %25, ptr %10, align 8, !tbaa !83
  call void @llvm.lifetime.start.p0(i64 4, ptr %11) #8
  %26 = load ptr, ptr %9, align 8, !tbaa !104
  %27 = getelementptr inbounds nuw %struct.APVRawFrameHeader, ptr %26, i32 0, i32 0
  %28 = getelementptr inbounds nuw %struct.APVRawFrameInfo, ptr %27, i32 0, i32 4
  %29 = load i32, ptr %28, align 4, !tbaa !143
  %30 = add i32 %29, 15
  %31 = udiv i32 %30, 16
  store i32 %31, ptr %11, align 4, !tbaa !11
  call void @llvm.lifetime.start.p0(i64 4, ptr %12) #8
  %32 = load ptr, ptr %9, align 8, !tbaa !104
  %33 = getelementptr inbounds nuw %struct.APVRawFrameHeader, ptr %32, i32 0, i32 0
  %34 = getelementptr inbounds nuw %struct.APVRawFrameInfo, ptr %33, i32 0, i32 5
  %35 = load i32, ptr %34, align 4, !tbaa !144
  %36 = add i32 %35, 15
  %37 = udiv i32 %36, 16
  store i32 %37, ptr %12, align 4, !tbaa !11
  call void @llvm.lifetime.start.p0(i64 4, ptr %13) #8
  %38 = load i32, ptr %11, align 4, !tbaa !11
  %39 = add nsw i32 %38, 20
  %40 = sub nsw i32 %39, 1
  %41 = sdiv i32 %40, 20
  %42 = icmp sgt i32 16, %41
  br i1 %42, label %43, label %44

43:                                               ; preds = %4
  br label %49

44:                                               ; preds = %4
  %45 = load i32, ptr %11, align 4, !tbaa !11
  %46 = add nsw i32 %45, 20
  %47 = sub nsw i32 %46, 1
  %48 = sdiv i32 %47, 20
  br label %49

49:                                               ; preds = %44, %43
  %50 = phi i32 [ 16, %43 ], [ %48, %44 ]
  store i32 %50, ptr %13, align 4, !tbaa !11
  call void @llvm.lifetime.start.p0(i64 4, ptr %14) #8
  %51 = load i32, ptr %12, align 4, !tbaa !11
  %52 = add nsw i32 %51, 20
  %53 = sub nsw i32 %52, 1
  %54 = sdiv i32 %53, 20
  %55 = icmp sgt i32 8, %54
  br i1 %55, label %56, label %57

56:                                               ; preds = %49
  br label %62

57:                                               ; preds = %49
  %58 = load i32, ptr %12, align 4, !tbaa !11
  %59 = add nsw i32 %58, 20
  %60 = sub nsw i32 %59, 1
  %61 = sdiv i32 %60, 20
  br label %62

62:                                               ; preds = %57, %56
  %63 = phi i32 [ 8, %56 ], [ %61, %57 ]
  store i32 %63, ptr %14, align 4, !tbaa !11
  call void @llvm.lifetime.start.p0(i64 4, ptr %15) #8
  br label %64

64:                                               ; preds = %62
  call void @llvm.lifetime.start.p0(i64 4, ptr %16) #8
  %65 = load ptr, ptr %8, align 8, !tbaa !141
  %66 = getelementptr inbounds nuw %struct.APVRawTileInfo, ptr %65, i32 0, i32 0
  %67 = load i32, ptr %66, align 4, !tbaa !145
  store i32 %67, ptr %16, align 4, !tbaa !11
  br label %68

68:                                               ; preds = %64
  %69 = load ptr, ptr %6, align 8, !tbaa !4
  %70 = load ptr, ptr %7, align 8, !tbaa !50
  %71 = load i32, ptr %16, align 4, !tbaa !11
  %72 = load i32, ptr %13, align 4, !tbaa !11
  %73 = call i32 @ff_cbs_write_unsigned(ptr noundef %69, ptr noundef %70, i32 noundef 20, ptr noundef @.str.32, ptr noundef null, i32 noundef %71, i32 noundef %72, i32 noundef 1048575)
  store i32 %73, ptr %15, align 4, !tbaa !11
  %74 = load i32, ptr %15, align 4, !tbaa !11
  %75 = icmp slt i32 %74, 0
  br i1 %75, label %76, label %78

76:                                               ; preds = %68
  %77 = load i32, ptr %15, align 4, !tbaa !11
  store i32 %77, ptr %5, align 4
  store i32 1, ptr %17, align 4
  br label %81

78:                                               ; preds = %68
  br label %79

79:                                               ; preds = %78
  br label %80

80:                                               ; preds = %79
  store i32 0, ptr %17, align 4
  br label %81

81:                                               ; preds = %80, %76
  call void @llvm.lifetime.end.p0(i64 4, ptr %16) #8
  %82 = load i32, ptr %17, align 4
  switch i32 %82, label %182 [
    i32 0, label %83
  ]

83:                                               ; preds = %81
  br label %84

84:                                               ; preds = %83
  br label %85

85:                                               ; preds = %84
  br label %86

86:                                               ; preds = %85
  call void @llvm.lifetime.start.p0(i64 4, ptr %18) #8
  %87 = load ptr, ptr %8, align 8, !tbaa !141
  %88 = getelementptr inbounds nuw %struct.APVRawTileInfo, ptr %87, i32 0, i32 1
  %89 = load i32, ptr %88, align 4, !tbaa !146
  store i32 %89, ptr %18, align 4, !tbaa !11
  br label %90

90:                                               ; preds = %86
  %91 = load ptr, ptr %6, align 8, !tbaa !4
  %92 = load ptr, ptr %7, align 8, !tbaa !50
  %93 = load i32, ptr %18, align 4, !tbaa !11
  %94 = load i32, ptr %14, align 4, !tbaa !11
  %95 = call i32 @ff_cbs_write_unsigned(ptr noundef %91, ptr noundef %92, i32 noundef 20, ptr noundef @.str.33, ptr noundef null, i32 noundef %93, i32 noundef %94, i32 noundef 1048575)
  store i32 %95, ptr %15, align 4, !tbaa !11
  %96 = load i32, ptr %15, align 4, !tbaa !11
  %97 = icmp slt i32 %96, 0
  br i1 %97, label %98, label %100

98:                                               ; preds = %90
  %99 = load i32, ptr %15, align 4, !tbaa !11
  store i32 %99, ptr %5, align 4
  store i32 1, ptr %17, align 4
  br label %103

100:                                              ; preds = %90
  br label %101

101:                                              ; preds = %100
  br label %102

102:                                              ; preds = %101
  store i32 0, ptr %17, align 4
  br label %103

103:                                              ; preds = %102, %98
  call void @llvm.lifetime.end.p0(i64 4, ptr %18) #8
  %104 = load i32, ptr %17, align 4
  switch i32 %104, label %182 [
    i32 0, label %105
  ]

105:                                              ; preds = %103
  br label %106

106:                                              ; preds = %105
  br label %107

107:                                              ; preds = %106
  br label %108

108:                                              ; preds = %107
  call void @llvm.lifetime.start.p0(i64 4, ptr %19) #8
  %109 = load ptr, ptr %8, align 8, !tbaa !141
  %110 = getelementptr inbounds nuw %struct.APVRawTileInfo, ptr %109, i32 0, i32 2
  %111 = load i8, ptr %110, align 4, !tbaa !147
  %112 = zext i8 %111 to i32
  store i32 %112, ptr %19, align 4, !tbaa !11
  br label %113

113:                                              ; preds = %108
  %114 = load ptr, ptr %6, align 8, !tbaa !4
  %115 = load ptr, ptr %7, align 8, !tbaa !50
  %116 = load i32, ptr %19, align 4, !tbaa !11
  %117 = call i32 @ff_cbs_write_unsigned(ptr noundef %114, ptr noundef %115, i32 noundef 1, ptr noundef @.str.34, ptr noundef null, i32 noundef %116, i32 noundef 0, i32 noundef 1)
  store i32 %117, ptr %15, align 4, !tbaa !11
  %118 = load i32, ptr %15, align 4, !tbaa !11
  %119 = icmp slt i32 %118, 0
  br i1 %119, label %120, label %122

120:                                              ; preds = %113
  %121 = load i32, ptr %15, align 4, !tbaa !11
  store i32 %121, ptr %5, align 4
  store i32 1, ptr %17, align 4
  br label %125

122:                                              ; preds = %113
  br label %123

123:                                              ; preds = %122
  br label %124

124:                                              ; preds = %123
  store i32 0, ptr %17, align 4
  br label %125

125:                                              ; preds = %124, %120
  call void @llvm.lifetime.end.p0(i64 4, ptr %19) #8
  %126 = load i32, ptr %17, align 4
  switch i32 %126, label %182 [
    i32 0, label %127
  ]

127:                                              ; preds = %125
  br label %128

128:                                              ; preds = %127
  br label %129

129:                                              ; preds = %128
  %130 = load ptr, ptr %10, align 8, !tbaa !83
  %131 = getelementptr inbounds nuw %struct.CodedBitstreamAPVContext, ptr %130, i32 0, i32 2
  %132 = load ptr, ptr %9, align 8, !tbaa !104
  call void @cbs_apv_derive_tile_info(ptr noundef %131, ptr noundef %132)
  %133 = load ptr, ptr %8, align 8, !tbaa !141
  %134 = getelementptr inbounds nuw %struct.APVRawTileInfo, ptr %133, i32 0, i32 2
  %135 = load i8, ptr %134, align 4, !tbaa !147
  %136 = icmp ne i8 %135, 0
  br i1 %136, label %137, label %181

137:                                              ; preds = %129
  call void @llvm.lifetime.start.p0(i64 4, ptr %20) #8
  store i32 0, ptr %20, align 4, !tbaa !11
  br label %138

138:                                              ; preds = %175, %137
  %139 = load i32, ptr %20, align 4, !tbaa !11
  %140 = load ptr, ptr %10, align 8, !tbaa !83
  %141 = getelementptr inbounds nuw %struct.CodedBitstreamAPVContext, ptr %140, i32 0, i32 2
  %142 = getelementptr inbounds nuw %struct.APVDerivedTileInfo, ptr %141, i32 0, i32 2
  %143 = load i16, ptr %142, align 2, !tbaa !85
  %144 = zext i16 %143 to i32
  %145 = icmp slt i32 %139, %144
  br i1 %145, label %147, label %146

146:                                              ; preds = %138
  store i32 14, ptr %17, align 4
  br label %178

147:                                              ; preds = %138
  br label %148

148:                                              ; preds = %147
  call void @llvm.lifetime.start.p0(i64 4, ptr %21) #8
  %149 = load ptr, ptr %8, align 8, !tbaa !141
  %150 = getelementptr inbounds nuw %struct.APVRawTileInfo, ptr %149, i32 0, i32 3
  %151 = load i32, ptr %20, align 4, !tbaa !11
  %152 = sext i32 %151 to i64
  %153 = getelementptr inbounds [400 x i32], ptr %150, i64 0, i64 %152
  %154 = load i32, ptr %153, align 4, !tbaa !11
  store i32 %154, ptr %21, align 4, !tbaa !11
  br label %155

155:                                              ; preds = %148
  %156 = load ptr, ptr %6, align 8, !tbaa !4
  %157 = load ptr, ptr %7, align 8, !tbaa !50
  store i32 1, ptr %22, align 4, !tbaa !11
  %158 = getelementptr inbounds i32, ptr %22, i64 1
  %159 = load i32, ptr %20, align 4, !tbaa !11
  store i32 %159, ptr %158, align 4, !tbaa !11
  %160 = getelementptr inbounds [2 x i32], ptr %22, i64 0, i64 0
  %161 = load i32, ptr %21, align 4, !tbaa !11
  %162 = call i32 @ff_cbs_write_unsigned(ptr noundef %156, ptr noundef %157, i32 noundef 32, ptr noundef @.str.35, ptr noundef %160, i32 noundef %161, i32 noundef 10, i32 noundef -1)
  store i32 %162, ptr %15, align 4, !tbaa !11
  %163 = load i32, ptr %15, align 4, !tbaa !11
  %164 = icmp slt i32 %163, 0
  br i1 %164, label %165, label %167

165:                                              ; preds = %155
  %166 = load i32, ptr %15, align 4, !tbaa !11
  store i32 %166, ptr %5, align 4
  store i32 1, ptr %17, align 4
  br label %170

167:                                              ; preds = %155
  br label %168

168:                                              ; preds = %167
  br label %169

169:                                              ; preds = %168
  store i32 0, ptr %17, align 4
  br label %170

170:                                              ; preds = %169, %165
  call void @llvm.lifetime.end.p0(i64 4, ptr %21) #8
  %171 = load i32, ptr %17, align 4
  switch i32 %171, label %178 [
    i32 0, label %172
  ]

172:                                              ; preds = %170
  br label %173

173:                                              ; preds = %172
  br label %174

174:                                              ; preds = %173
  br label %175

175:                                              ; preds = %174
  %176 = load i32, ptr %20, align 4, !tbaa !11
  %177 = add nsw i32 %176, 1
  store i32 %177, ptr %20, align 4, !tbaa !11
  br label %138, !llvm.loop !223

178:                                              ; preds = %170, %146
  call void @llvm.lifetime.end.p0(i64 4, ptr %20) #8
  %179 = load i32, ptr %17, align 4
  switch i32 %179, label %182 [
    i32 14, label %180
  ]

180:                                              ; preds = %178
  br label %181

181:                                              ; preds = %180, %129
  store i32 0, ptr %5, align 4
  store i32 1, ptr %17, align 4
  br label %182

182:                                              ; preds = %181, %178, %125, %103, %81
  call void @llvm.lifetime.end.p0(i64 4, ptr %15) #8
  call void @llvm.lifetime.end.p0(i64 4, ptr %14) #8
  call void @llvm.lifetime.end.p0(i64 4, ptr %13) #8
  call void @llvm.lifetime.end.p0(i64 4, ptr %12) #8
  call void @llvm.lifetime.end.p0(i64 4, ptr %11) #8
  call void @llvm.lifetime.end.p0(i64 8, ptr %10) #8
  %183 = load i32, ptr %5, align 4
  ret i32 %183
}