; Function Attrs: nounwind uwtable
define internal fastcc range(i32 -2147483648, 1) i32 @cbs_apv_write_tile_info(ptr noundef %0, ptr noundef %1, ptr noundef readonly captures(none) %2, ptr noundef readonly captures(none) %3) unnamed_addr #0 {
  %5 = alloca [2 x i32], align 4
  %6 = getelementptr inbounds nuw i8, ptr %0, i64 16
  %7 = load ptr, ptr %6, align 8, !tbaa !34
  %8 = getelementptr inbounds nuw i8, ptr %3, i64 4
  %9 = load i32, ptr %8, align 4, !tbaa !62
  %10 = add i32 %9, 15
  %11 = getelementptr inbounds nuw i8, ptr %3, i64 8
  %12 = load i32, ptr %11, align 4, !tbaa !63
  %13 = add i32 %12, 15
  %14 = lshr i32 %13, 4
  %15 = icmp ult i32 %10, 4816
  br i1 %15, label %20, label %16

16:                                               ; preds = %4
  %17 = lshr i32 %10, 4
  %18 = add nuw nsw i32 %17, 19
  %19 = udiv i32 %18, 20
  br label %20

20:                                               ; preds = %4, %16
  %21 = phi i32 [ %19, %16 ], [ 16, %4 ]
  %22 = icmp ult i32 %13, 2256
  br i1 %22, label %26, label %23

23:                                               ; preds = %20
  %24 = add nuw nsw i32 %14, 19
  %25 = udiv i32 %24, 20
  br label %26

26:                                               ; preds = %20, %23
  %27 = phi i32 [ %25, %23 ], [ 8, %20 ]
  %28 = load i32, ptr %2, align 4, !tbaa !64
  %29 = tail call i32 @ff_cbs_write_unsigned(ptr noundef nonnull %0, ptr noundef %1, i32 noundef 20, ptr noundef nonnull @.str.32, ptr noundef null, i32 noundef %28, i32 noundef %21, i32 noundef 1048575) #7
  %30 = icmp sgt i32 %29, -1
  br i1 %30, label %31, label %.thread

31:                                               ; preds = %26
  %32 = getelementptr inbounds nuw i8, ptr %2, i64 4
  %33 = load i32, ptr %32, align 4, !tbaa !65
  %34 = tail call i32 @ff_cbs_write_unsigned(ptr noundef nonnull %0, ptr noundef %1, i32 noundef 20, ptr noundef nonnull @.str.33, ptr noundef null, i32 noundef %33, i32 noundef %27, i32 noundef 1048575) #7
  %35 = icmp sgt i32 %34, -1
  br i1 %35, label %36, label %.thread

36:                                               ; preds = %31
  %37 = getelementptr inbounds nuw i8, ptr %2, i64 8
  %38 = load i8, ptr %37, align 4, !tbaa !66
  %39 = zext i8 %38 to i32
  %40 = tail call i32 @ff_cbs_write_unsigned(ptr noundef nonnull %0, ptr noundef %1, i32 noundef 1, ptr noundef nonnull @.str.34, ptr noundef null, i32 noundef %39, i32 noundef 0, i32 noundef 1) #7
  %41 = icmp sgt i32 %40, -1
  br i1 %41, label %42, label %.thread

42:                                               ; preds = %36
  %43 = getelementptr inbounds nuw i8, ptr %7, i64 8
  tail call fastcc void @cbs_apv_derive_tile_info(ptr noundef nonnull %43, ptr noundef nonnull %3)
  %44 = load i8, ptr %37, align 4, !tbaa !66
  %.not = icmp eq i8 %44, 0
  br i1 %.not, label %.thread, label %.preheader

.preheader:                                       ; preds = %42
  %45 = getelementptr inbounds nuw i8, ptr %2, i64 12
  %46 = getelementptr inbounds nuw i8, ptr %7, i64 10
  %47 = load i16, ptr %46, align 2, !tbaa !67
  %.not6062.not = icmp eq i16 %47, 0
  br i1 %.not6062.not, label %.thread, label %.lr.ph

.lr.ph:                                           ; preds = %.preheader
  %48 = getelementptr inbounds nuw i8, ptr %5, i64 4
  br label %52

49:                                               ; preds = %52
  %indvars.iv.next = add nuw nsw i64 %indvars.iv, 1
  %50 = load i16, ptr %46, align 2, !tbaa !67
  %51 = zext i16 %50 to i64
  %.not60 = icmp samesign ult i64 %indvars.iv.next, %51
  br i1 %.not60, label %52, label %.thread, !llvm.loop !182

52:                                               ; preds = %.lr.ph, %49
  %indvars.iv = phi i64 [ 0, %.lr.ph ], [ %indvars.iv.next, %49 ]
  %53 = getelementptr inbounds nuw [400 x i32], ptr %45, i64 0, i64 %indvars.iv
  %54 = load i32, ptr %53, align 4, !tbaa !27
  store i32 1, ptr %5, align 4, !tbaa !27
  %55 = trunc nuw nsw i64 %indvars.iv to i32
  store i32 %55, ptr %48, align 4, !tbaa !27
  %56 = call i32 @ff_cbs_write_unsigned(ptr noundef nonnull %0, ptr noundef %1, i32 noundef 32, ptr noundef nonnull @.str.35, ptr noundef nonnull %5, i32 noundef %54, i32 noundef 10, i32 noundef -1) #7
  %57 = icmp sgt i32 %56, -1
  br i1 %57, label %49, label %.thread

.thread:                                          ; preds = %49, %52, %.preheader, %42, %36, %31, %26
  %.1 = phi i32 [ %40, %36 ], [ %34, %31 ], [ %29, %26 ], [ 0, %42 ], [ 0, %.preheader ], [ 0, %49 ], [ %56, %52 ]
  ret i32 %.1
}